; Function Attrs: null_pointer_is_valid sspstrong uwtable
define internal range(i32 0, 2) i32 @sm_fragment_params_equal(ptr noundef readonly captures(none) %0, ptr noundef readonly captures(none) %1) #0 {
  %3 = getelementptr inbounds nuw i8, ptr %0, i64 64
  %4 = load i32, ptr %3, align 8
  %5 = getelementptr inbounds nuw i8, ptr %1, i64 64
  %6 = load i32, ptr %5, align 8
  %7 = icmp eq i32 %4, %6
  br i1 %7, label %8, label %addresses_equal.exit

8:                                                ; preds = %2
  %9 = getelementptr inbounds nuw i8, ptr %0, i64 8
  %10 = load i32, ptr %9, align 8
  %11 = getelementptr inbounds nuw i8, ptr %1, i64 8
  %12 = load i32, ptr %11, align 8
  %13 = icmp eq i32 %10, %12
  br i1 %13, label %14, label %addresses_equal.exit

14:                                               ; preds = %8
  %15 = load ptr, ptr %0, align 8
  %16 = load ptr, ptr %1, align 8
  %17 = tail call i32 @g_strcmp0(ptr noundef %15, ptr noundef %16)
  %.not = icmp eq i32 %17, 0
  br i1 %.not, label %18, label %addresses_equal.exit

18:                                               ; preds = %14
  %19 = getelementptr inbounds nuw i8, ptr %0, i64 16
  %20 = getelementptr inbounds nuw i8, ptr %1, i64 16
  %21 = load i32, ptr %19, align 8
  %22 = load i32, ptr %20, align 8
  %23 = icmp eq i32 %21, %22
  br i1 %23, label %24, label %addresses_equal.exit

24:                                               ; preds = %18
  %25 = getelementptr inbounds nuw i8, ptr %0, i64 20
  %26 = load i32, ptr %25, align 4
  %27 = getelementptr inbounds nuw i8, ptr %1, i64 20
  %28 = load i32, ptr %27, align 4
  %29 = icmp eq i32 %26, %28
  br i1 %29, label %30, label %addresses_equal.exit

30:                                               ; preds = %24
  %31 = icmp eq i32 %26, 0
  br i1 %31, label %39, label %32

32:                                               ; preds = %30
  %33 = getelementptr inbounds nuw i8, ptr %0, i64 24
  %34 = load ptr, ptr %33, align 8
  %35 = getelementptr inbounds nuw i8, ptr %1, i64 24
  %36 = load ptr, ptr %35, align 8
  %37 = sext i32 %26 to i64
  %bcmp.i = tail call i32 @bcmp(ptr %34, ptr %36, i64 %37)
  %38 = icmp eq i32 %bcmp.i, 0
  br i1 %38, label %39, label %addresses_equal.exit

39:                                               ; preds = %32, %30
  %40 = getelementptr inbounds nuw i8, ptr %0, i64 40
  %41 = getelementptr inbounds nuw i8, ptr %1, i64 40
  %42 = load i32, ptr %40, align 8
  %43 = load i32, ptr %41, align 8
  %44 = icmp eq i32 %42, %43
  br i1 %44, label %45, label %60

45:                                               ; preds = %39
  %46 = getelementptr inbounds nuw i8, ptr %0, i64 44
  %47 = load i32, ptr %46, align 4
  %48 = getelementptr inbounds nuw i8, ptr %1, i64 44
  %49 = load i32, ptr %48, align 4
  %50 = icmp eq i32 %47, %49
  br i1 %50, label %51, label %60

51:                                               ; preds = %45
  %52 = icmp eq i32 %47, 0
  br i1 %52, label %addresses_equal.exit, label %53

53:                                               ; preds = %51
  %54 = getelementptr inbounds nuw i8, ptr %0, i64 48
  %55 = load ptr, ptr %54, align 8
  %56 = getelementptr inbounds nuw i8, ptr %1, i64 48
  %57 = load ptr, ptr %56, align 8
  %58 = sext i32 %47 to i64
  %bcmp.i13 = tail call i32 @bcmp(ptr %55, ptr %57, i64 %58)
  %59 = icmp eq i32 %bcmp.i13, 0
  br i1 %59, label %addresses_equal.exit, label %60

60:                                               ; preds = %53, %45, %39
  br label %addresses_equal.exit

addresses_equal.exit:                             ; preds = %60, %53, %51, %32, %24, %18, %14, %8, %2
  %61 = phi i32 [ 0, %14 ], [ 0, %8 ], [ 0, %2 ], [ 0, %18 ], [ 0, %24 ], [ 0, %32 ], [ 0, %60 ], [ 1, %53 ], [ 1, %51 ]
  ret i32 %61
}